; Function Attrs: mustprogress nofree norecurse nosync nounwind willreturn memory(argmem: read) uwtable
define noundef float @_ZN3gmx8internal49findSmallestQuotientOfFunctionAndSecondDerivativeENS_8ArrayRefIKdEEdRKSt4pairIffE(ptr nocapture readonly %0, ptr nocapture readnone %1, double noundef %2, ptr nocapture noundef nonnull readonly align 4 dereferenceable(8) %3) local_unnamed_addr #11 {
  %5 = load float, ptr %3, align 4
  %6 = fpext float %5 to double
  %7 = fdiv double %6, %2
  %8 = fptoui double %7 to i64
  %9 = getelementptr inbounds i8, ptr %3, i64 4
  %10 = load float, ptr %9, align 4
  %11 = fpext float %10 to double
  %12 = fdiv double %11, %2
  %13 = fptoui double %12 to i64
  %invariant.gep = getelementptr i8, ptr %0, i64 -8
  %14 = add i64 %8, 2
  %15 = icmp ult i64 %14, %13
  br i1 %15, label %.lr.ph, label %._crit_edge

.lr.ph:                                           ; preds = %4
  %16 = add i64 %8, 1
  %17 = fmul double %2, %2
  %.phi.trans.insert = getelementptr inbounds double, ptr %0, i64 %16
  %.pre = load double, ptr %.phi.trans.insert, align 8
  br label %18

18:                                               ; preds = %.lr.ph, %18
  %19 = phi double [ %.pre, %.lr.ph ], [ %23, %18 ]
  %20 = phi i64 [ %14, %.lr.ph ], [ %35, %18 ]
  %.017 = phi i64 [ %16, %.lr.ph ], [ %20, %18 ]
  %.01516 = phi double [ 0x47EFFFFFE0000000, %.lr.ph ], [ %.sroa.speculated, %18 ]
  %gep = getelementptr double, ptr %invariant.gep, i64 %.017
  %21 = load double, ptr %gep, align 8
  %22 = getelementptr inbounds double, ptr %0, i64 %20
  %23 = load double, ptr %22, align 8
  %24 = tail call double @llvm.fmuladd.f64(double %19, double -2.000000e+00, double %21)
  %25 = fadd double %24, %23
  %26 = fdiv double %25, %17
  %27 = insertelement <2 x double> poison, double %19, i64 0
  %28 = insertelement <2 x double> %27, double %26, i64 1
  %29 = tail call <2 x double> @llvm.fabs.v2f64(<2 x double> %28)
  %30 = fcmp olt <2 x double> %29, <double 0x3C00000000000000, double 0x3C00000000000000>
  %31 = select <2 x i1> %30, <2 x double> <double 0x3C00000000000000, double 0x3C00000000000000>, <2 x double> %29
  %shift = shufflevector <2 x double> %31, <2 x double> poison, <2 x i32> <i32 1, i32 poison>
  %32 = fdiv <2 x double> %31, %shift
  %33 = extractelement <2 x double> %32, i64 0
  %34 = fcmp olt double %33, %.01516
  %.sroa.speculated = select i1 %34, double %33, double %.01516
  %35 = add nuw i64 %20, 1
  %exitcond.not = icmp eq i64 %35, %13
  br i1 %exitcond.not, label %._crit_edge.loopexit, label %18, !llvm.loop !10

._crit_edge.loopexit:                             ; preds = %18
  %36 = fptrunc double %.sroa.speculated to float
  br label %._crit_edge

._crit_edge:                                      ; preds = %._crit_edge.loopexit, %4
  %.015.lcssa = phi float [ 0x47EFFFFFE0000000, %4 ], [ %36, %._crit_edge.loopexit ]
  ret float %.015.lcssa
}